target datalayout = "e-m:e-p270:32:32-p271:32:32-p272:64:64-i64:64-i128:128-f80:128-n8:16:32:64-S128"
target triple = "x86_64-pc-linux-gnu"

%struct.Mv = type { i32, i32 }
%struct.VVCLocalContext = type { i8, i8, i8, i8, i32, i32, [4 x i8], [3276800 x i8], [16384 x i16], [16384 x i16], [16384 x i16], [32768 x i8], [332800 x i8], [368640 x i8], [368640 x i8], [17424 x i32], %struct.anon, %struct.anon.0, ptr, [2 x [1024 x %struct.ReconstructedArea]], [2 x i32], %struct.NeighbourAvailable, i32, ptr, ptr, ptr, ptr }
%struct.anon = type { i32, i8, i32, i32, i32, [3 x i32], i32, i32, i32, i32, i32, i32 }
%struct.anon.0 = type { i32, i32, i32 }
%struct.ReconstructedArea = type { i32, i32, i32, i32 }
%struct.NeighbourAvailable = type { i32, i32, i32, i32, i32 }
%struct.PredWeightTable = type { [2 x i8], [2 x i8], [2 x [2 x [15 x i8]]], [2 x [3 x [15 x i16]]], [2 x [3 x [15 x i16]]] }
%struct.VVCFrameContext = type { ptr, [17 x %struct.VVCFrame], ptr, ptr, %struct.VVCFrameParamSets, ptr, i32, i32, ptr, %struct.VVCDSPContext, %struct.VideoDSPContext, ptr, i64, ptr, ptr, ptr, ptr, %struct.anon.1 }
%struct.VVCFrame = type { ptr, ptr, ptr, ptr, ptr, ptr, i32, i32, i32, %struct.VVCWindow, i32, i32, ptr, ptr, i16, i8, ptr }
%struct.VVCWindow = type { i16, i16, i16, i16 }
%struct.VVCFrameParamSets = type { ptr, ptr, %struct.VVCPH, [8 x ptr], %struct.VVCLMCS, ptr }
%struct.VVCPH = type { ptr, ptr, i32, i32, i8, [3 x i16], i8, [3 x i16], %struct.PredWeightTable }
%struct.VVCLMCS = type { i8, i8, %union.anon, %union.anon, [17 x i16], [16 x i16] }
%union.anon = type { [4096 x i16] }
%struct.VVCDSPContext = type { %struct.VVCInterDSPContext, %struct.VVCIntraDSPContext, %struct.VVCItxDSPContext, %struct.VVCLMCSDSPContext, %struct.VVCLFDSPContext, %struct.VVCSAODSPContext, %struct.VVCALFDSPContext }
%struct.VVCInterDSPContext = type { [2 x [7 x [2 x [2 x ptr]]]], [2 x [7 x [2 x [2 x ptr]]]], [2 x [7 x [2 x [2 x ptr]]]], [2 x [7 x ptr]], [2 x [7 x ptr]], [2 x [7 x ptr]], ptr, ptr, ptr, ptr, ptr, ptr, ptr, ptr, ptr, ptr, ptr, [2 x [2 x ptr]] }
%struct.VVCIntraDSPContext = type { ptr, ptr, ptr, ptr, ptr, ptr, ptr, ptr, ptr, ptr }
%struct.VVCItxDSPContext = type { ptr, ptr, [3 x [6 x ptr]], ptr, ptr }
%struct.VVCLMCSDSPContext = type { ptr }
%struct.VVCLFDSPContext = type { [2 x ptr], [2 x ptr], [2 x ptr] }
%struct.VVCSAODSPContext = type { [9 x ptr], [9 x ptr], [2 x ptr] }
%struct.VVCALFDSPContext = type { [2 x ptr], ptr, ptr, ptr }
%struct.VideoDSPContext = type { ptr, ptr }
%struct.anon.1 = type { ptr, ptr, ptr, ptr, [2 x ptr], [2 x ptr], [2 x ptr], [2 x ptr], [2 x ptr], [3 x ptr], ptr, ptr, [2 x ptr], ptr, ptr, [2 x ptr], ptr, ptr, ptr, [2 x ptr], ptr, [3 x ptr], ptr, [2 x ptr], [2 x ptr], [2 x ptr], [2 x [3 x ptr]], [2 x ptr], [2 x ptr], [3 x ptr], [3 x ptr], [3 x [2 x ptr]], [3 x [2 x ptr]], ptr, ptr, ptr, [3 x ptr], %struct.anon.2 }
%struct.anon.2 = type { i32, i32, i32, i32, i32, i32, i32, i32, i32, i32, i32, i32 }
%struct.VVCPPS = type { ptr, [3 x i8], [6 x [3 x i8]], i16, i16, [1000 x i16], [1000 x i16], i16, i16, i16, i16, i32, i16, i16, i16, i16, ptr, ptr, ptr, ptr, ptr, i16, i16, i16, i16, i16, [1000 x i16], [1000 x i16], [1000 x i16], [1000 x i16] }
%struct.MvField = type { [2 x %struct.Mv], [2 x i8], i8, i8, i8, i8 }
%struct.CodingUnit = type { i32, i32, i32, i32, i32, i32, i32, i8, i8, i8, i8, i32, i32, i8, i8, i8, i8, i8, i32, i32, i32, i32, i32, i32, [3 x i32], [3 x i32], %struct.anon.3, [4 x i8], [3 x %struct.Palette], [4 x i8], %struct.PredictionUnit, ptr }
%struct.anon.3 = type { ptr, ptr }
%struct.Palette = type { i8, [63 x i16] }
%struct.PredictionUnit = type { i8, i8, i8, i8, i8, i8, [2 x %struct.MvField], i32, %struct.MotionInfo, i8, i8, [2 x [16 x i16]], [2 x [16 x i16]], [2 x i32], [4 x i8] }
%struct.MotionInfo = type { i32, [2 x i8], i8, i8, i32, [2 x [3 x %struct.Mv]], i32, i32 }

; Function Attrs: nounwind uwtable
define void @ff_vvc_set_mvf(ptr noundef %0, i32 noundef %1, i32 noundef %2, i32 noundef %3, i32 noundef %4, ptr noundef %5) #0 {
  %7 = alloca ptr, align 8
  %8 = alloca i32, align 4
  %9 = alloca i32, align 4
  %10 = alloca i32, align 4
  %11 = alloca i32, align 4
  %12 = alloca ptr, align 8
  %13 = alloca ptr, align 8
  %14 = alloca ptr, align 8
  %15 = alloca i32, align 4
  %16 = alloca i32, align 4
  %17 = alloca i32, align 4
  %18 = alloca i32, align 4
  %19 = alloca i32, align 4
  %20 = alloca i32, align 4
  %21 = alloca i32, align 4
  store ptr %0, ptr %7, align 8, !tbaa !14
  store i32 %1, ptr %8, align 4, !tbaa !9
  store i32 %2, ptr %9, align 4, !tbaa !9
  store i32 %3, ptr %10, align 4, !tbaa !9
  store i32 %4, ptr %11, align 4, !tbaa !9
  store ptr %5, ptr %12, align 8, !tbaa !77
  call void @llvm.lifetime.start.p0(i64 8, ptr %13) #9
  %22 = load ptr, ptr %7, align 8, !tbaa !14
  %23 = getelementptr inbounds nuw %struct.VVCLocalContext, ptr %22, i32 0, i32 24
  %24 = load ptr, ptr %23, align 8, !tbaa !39
  store ptr %24, ptr %13, align 8, !tbaa !78
  call void @llvm.lifetime.start.p0(i64 8, ptr %14) #9
  %25 = load ptr, ptr %13, align 8, !tbaa !78
  %26 = getelementptr inbounds nuw %struct.VVCFrameContext, ptr %25, i32 0, i32 17
  %27 = getelementptr inbounds nuw %struct.anon.1, ptr %26, i32 0, i32 20
  %28 = load ptr, ptr %27, align 8, !tbaa !79
  store ptr %28, ptr %14, align 8, !tbaa !77
  call void @llvm.lifetime.start.p0(i64 4, ptr %15) #9
  %29 = load ptr, ptr %13, align 8, !tbaa !78
  %30 = getelementptr inbounds nuw %struct.VVCFrameContext, ptr %29, i32 0, i32 4
  %31 = getelementptr inbounds nuw %struct.VVCFrameParamSets, ptr %30, i32 0, i32 1
  %32 = load ptr, ptr %31, align 8, !tbaa !80
  %33 = getelementptr inbounds nuw %struct.VVCPPS, ptr %32, i32 0, i32 12
  %34 = load i16, ptr %33, align 8, !tbaa !81
  %35 = zext i16 %34 to i32
  store i32 %35, ptr %15, align 4, !tbaa !9
  call void @llvm.lifetime.start.p0(i64 4, ptr %16) #9
  store i32 4, ptr %16, align 4, !tbaa !9
  call void @llvm.lifetime.start.p0(i64 4, ptr %17) #9
  store i32 0, ptr %17, align 4, !tbaa !9
  br label %36

36:                                               ; preds = %69, %6
  %37 = load i32, ptr %17, align 4, !tbaa !9
  %38 = load i32, ptr %11, align 4, !tbaa !9
  %39 = icmp slt i32 %37, %38
  br i1 %39, label %41, label %40

40:                                               ; preds = %36
  store i32 2, ptr %18, align 4
  call void @llvm.lifetime.end.p0(i64 4, ptr %17) #9
  br label %72

41:                                               ; preds = %36
  call void @llvm.lifetime.start.p0(i64 4, ptr %19) #9
  store i32 0, ptr %19, align 4, !tbaa !9
  br label %42

42:                                               ; preds = %65, %41
  %43 = load i32, ptr %19, align 4, !tbaa !9
  %44 = load i32, ptr %10, align 4, !tbaa !9
  %45 = icmp slt i32 %43, %44
  br i1 %45, label %47, label %46

46:                                               ; preds = %42
  store i32 5, ptr %18, align 4
  call void @llvm.lifetime.end.p0(i64 4, ptr %19) #9
  br label %68

47:                                               ; preds = %42
  call void @llvm.lifetime.start.p0(i64 4, ptr %20) #9
  %48 = load i32, ptr %8, align 4, !tbaa !9
  %49 = load i32, ptr %19, align 4, !tbaa !9
  %50 = add nsw i32 %48, %49
  store i32 %50, ptr %20, align 4, !tbaa !9
  call void @llvm.lifetime.start.p0(i64 4, ptr %21) #9
  %51 = load i32, ptr %9, align 4, !tbaa !9
  %52 = load i32, ptr %17, align 4, !tbaa !9
  %53 = add nsw i32 %51, %52
  store i32 %53, ptr %21, align 4, !tbaa !9
  %54 = load ptr, ptr %14, align 8, !tbaa !77
  %55 = load i32, ptr %21, align 4, !tbaa !9
  %56 = ashr i32 %55, 2
  %57 = load i32, ptr %15, align 4, !tbaa !9
  %58 = mul nsw i32 %56, %57
  %59 = load i32, ptr %20, align 4, !tbaa !9
  %60 = ashr i32 %59, 2
  %61 = add nsw i32 %58, %60
  %62 = sext i32 %61 to i64
  %63 = getelementptr inbounds %struct.MvField, ptr %54, i64 %62
  %64 = load ptr, ptr %12, align 8, !tbaa !77
  call void @llvm.memcpy.p0.p0.i64(ptr align 8 %63, ptr align 8 %64, i64 24, i1 false), !tbaa.struct !85
  call void @llvm.lifetime.end.p0(i64 4, ptr %21) #9
  call void @llvm.lifetime.end.p0(i64 4, ptr %20) #9
  br label %65

65:                                               ; preds = %47
  %66 = load i32, ptr %19, align 4, !tbaa !9
  %67 = add nsw i32 %66, 4
  store i32 %67, ptr %19, align 4, !tbaa !9
  br label %42, !llvm.loop !86

68:                                               ; preds = %46
  br label %69

69:                                               ; preds = %68
  %70 = load i32, ptr %17, align 4, !tbaa !9
  %71 = add nsw i32 %70, 4
  store i32 %71, ptr %17, align 4, !tbaa !9
  br label %36, !llvm.loop !87

72:                                               ; preds = %40
  call void @llvm.lifetime.end.p0(i64 4, ptr %16) #9
  call void @llvm.lifetime.end.p0(i64 4, ptr %15) #9
  call void @llvm.lifetime.end.p0(i64 8, ptr %14) #9
  call void @llvm.lifetime.end.p0(i64 8, ptr %13) #9
  ret void
}

; Function Attrs: nounwind uwtable
define void @ff_vvc_store_mv(ptr noundef %0, ptr noundef %1) #0 {
  %3 = alloca ptr, align 8
  %4 = alloca ptr, align 8
  %5 = alloca ptr, align 8
  %6 = alloca %struct.MvField, align 8
  %7 = alloca i32, align 4
  %8 = alloca i32, align 4
  store ptr %0, ptr %3, align 8, !tbaa !14
  store ptr %1, ptr %4, align 8, !tbaa !117
  call void @llvm.lifetime.start.p0(i64 8, ptr %5) #9
  %9 = load ptr, ptr %3, align 8, !tbaa !14
  %10 = getelementptr inbounds nuw %struct.VVCLocalContext, ptr %9, i32 0, i32 18
  %11 = load ptr, ptr %10, align 8, !tbaa !90
  store ptr %11, ptr %5, align 8, !tbaa !91
  call void @llvm.lifetime.start.p0(i64 24, ptr %6) #9
  call void @llvm.memset.p0.i64(ptr align 8 %6, i8 0, i64 24, i1 false)
  %12 = load ptr, ptr %4, align 8, !tbaa !117
  %13 = getelementptr inbounds nuw %struct.MotionInfo, ptr %12, i32 0, i32 2
  %14 = load i8, ptr %13, align 2, !tbaa !124
  %15 = getelementptr inbounds nuw %struct.MvField, ptr %6, i32 0, i32 2
  store i8 %14, ptr %15, align 2, !tbaa !125
  %16 = load ptr, ptr %4, align 8, !tbaa !117
  %17 = getelementptr inbounds nuw %struct.MotionInfo, ptr %16, i32 0, i32 3
  %18 = load i8, ptr %17, align 1, !tbaa !122
  %19 = getelementptr inbounds nuw %struct.MvField, ptr %6, i32 0, i32 3
  store i8 %18, ptr %19, align 1, !tbaa !123
  %20 = load ptr, ptr %4, align 8, !tbaa !117
  %21 = getelementptr inbounds nuw %struct.MotionInfo, ptr %20, i32 0, i32 4
  %22 = load i32, ptr %21, align 4, !tbaa !121
  %23 = trunc i32 %22 to i8
  %24 = getelementptr inbounds nuw %struct.MvField, ptr %6, i32 0, i32 4
  store i8 %23, ptr %24, align 4, !tbaa !110
  call void @llvm.lifetime.start.p0(i64 4, ptr %7) #9
  store i32 0, ptr %7, align 4, !tbaa !9
  br label %25

25:                                               ; preds = %60, %2
  %26 = load i32, ptr %7, align 4, !tbaa !9
  %27 = icmp slt i32 %26, 2
  br i1 %27, label %29, label %28

28:                                               ; preds = %25
  call void @llvm.lifetime.end.p0(i64 4, ptr %7) #9
  br label %63

29:                                               ; preds = %25
  call void @llvm.lifetime.start.p0(i64 4, ptr %8) #9
  %30 = load i32, ptr %7, align 4, !tbaa !9
  %31 = add nsw i32 %30, 1
  store i32 %31, ptr %8, align 4, !tbaa !9
  %32 = getelementptr inbounds nuw %struct.MvField, ptr %6, i32 0, i32 4
  %33 = load i8, ptr %32, align 4, !tbaa !110
  %34 = zext i8 %33 to i32
  %35 = load i32, ptr %8, align 4, !tbaa !9
  %36 = and i32 %34, %35
  %37 = icmp ne i32 %36, 0
  br i1 %37, label %38, label %59

38:                                               ; preds = %29
  %39 = getelementptr inbounds nuw %struct.MvField, ptr %6, i32 0, i32 0
  %40 = load i32, ptr %7, align 4, !tbaa !9
  %41 = sext i32 %40 to i64
  %42 = getelementptr inbounds [2 x %struct.Mv], ptr %39, i64 0, i64 %41
  %43 = load ptr, ptr %4, align 8, !tbaa !117
  %44 = getelementptr inbounds nuw %struct.MotionInfo, ptr %43, i32 0, i32 5
  %45 = load i32, ptr %7, align 4, !tbaa !9
  %46 = sext i32 %45 to i64
  %47 = getelementptr inbounds [2 x [3 x %struct.Mv]], ptr %44, i64 0, i64 %46
  %48 = getelementptr inbounds [3 x %struct.Mv], ptr %47, i64 0, i64 0
  call void @llvm.memcpy.p0.p0.i64(ptr align 8 %42, ptr align 4 %48, i64 8, i1 false), !tbaa.struct !155
  %49 = load ptr, ptr %4, align 8, !tbaa !117
  %50 = getelementptr inbounds nuw %struct.MotionInfo, ptr %49, i32 0, i32 1
  %51 = load i32, ptr %7, align 4, !tbaa !9
  %52 = sext i32 %51 to i64
  %53 = getelementptr inbounds [2 x i8], ptr %50, i64 0, i64 %52
  %54 = load i8, ptr %53, align 1, !tbaa !35
  %55 = getelementptr inbounds nuw %struct.MvField, ptr %6, i32 0, i32 1
  %56 = load i32, ptr %7, align 4, !tbaa !9
  %57 = sext i32 %56 to i64
  %58 = getelementptr inbounds [2 x i8], ptr %55, i64 0, i64 %57
  store i8 %54, ptr %58, align 1, !tbaa !35
  br label %59

59:                                               ; preds = %38, %29
  call void @llvm.lifetime.end.p0(i64 4, ptr %8) #9
  br label %60

60:                                               ; preds = %59
  %61 = load i32, ptr %7, align 4, !tbaa !9
  %62 = add nsw i32 %61, 1
  store i32 %62, ptr %7, align 4, !tbaa !9
  br label %25, !llvm.loop !158

63:                                               ; preds = %28
  %64 = load ptr, ptr %3, align 8, !tbaa !14
  %65 = load ptr, ptr %5, align 8, !tbaa !91
  %66 = getelementptr inbounds nuw %struct.CodingUnit, ptr %65, i32 0, i32 1
  %67 = load i32, ptr %66, align 4, !tbaa !108
  %68 = load ptr, ptr %5, align 8, !tbaa !91
  %69 = getelementptr inbounds nuw %struct.CodingUnit, ptr %68, i32 0, i32 2
  %70 = load i32, ptr %69, align 8, !tbaa !109
  %71 = load ptr, ptr %5, align 8, !tbaa !91
  %72 = getelementptr inbounds nuw %struct.CodingUnit, ptr %71, i32 0, i32 3
  %73 = load i32, ptr %72, align 4, !tbaa !107
  %74 = load ptr, ptr %5, align 8, !tbaa !91
  %75 = getelementptr inbounds nuw %struct.CodingUnit, ptr %74, i32 0, i32 4
  %76 = load i32, ptr %75, align 8, !tbaa !101
  call void @ff_vvc_set_mvf(ptr noundef %64, i32 noundef %67, i32 noundef %70, i32 noundef %73, i32 noundef %76, ptr noundef %6)
  call void @llvm.lifetime.end.p0(i64 24, ptr %6) #9
  call void @llvm.lifetime.end.p0(i64 8, ptr %5) #9
  ret void
}