; Function Attrs: nofree norecurse nosync nounwind memory(readwrite, inaccessiblemem: none) uwtable
define void @ff_vvc_store_mv(ptr noundef readonly captures(none) %0, ptr noundef readonly captures(none) %1) local_unnamed_addr #4 {
  %3 = alloca %struct.MvField, align 8
  %4 = getelementptr inbounds nuw i8, ptr %0, i64 4547736
  %5 = load ptr, ptr %4, align 8, !tbaa !80
  call void @llvm.lifetime.start.p0(i64 24, ptr nonnull %3) #14
  call void @llvm.memset.p0.i64(ptr noundef nonnull align 8 dereferenceable(24) %3, i8 0, i64 24, i1 false)
  %6 = getelementptr inbounds nuw i8, ptr %1, i64 6
  %7 = load i8, ptr %6, align 2, !tbaa !102
  %8 = getelementptr inbounds nuw i8, ptr %3, i64 18
  store i8 %7, ptr %8, align 2, !tbaa !103
  %9 = getelementptr inbounds nuw i8, ptr %1, i64 7
  %10 = load i8, ptr %9, align 1, !tbaa !100
  %11 = getelementptr inbounds nuw i8, ptr %3, i64 19
  store i8 %10, ptr %11, align 1, !tbaa !101
  %12 = getelementptr inbounds nuw i8, ptr %1, i64 8
  %13 = load i32, ptr %12, align 4, !tbaa !99
  %14 = trunc i32 %13 to i8
  %15 = getelementptr inbounds nuw i8, ptr %3, i64 20
  store i8 %14, ptr %15, align 4, !tbaa !92
  %16 = getelementptr inbounds nuw i8, ptr %1, i64 12
  %17 = getelementptr inbounds nuw i8, ptr %1, i64 4
  %18 = getelementptr inbounds nuw i8, ptr %3, i64 16
  %19 = and i32 %13, 255
  %indvars.iv.sroa.gep20 = getelementptr inbounds nuw i8, ptr %3, i64 8
  br label %53

20:                                               ; preds = %64
  %21 = getelementptr inbounds nuw i8, ptr %5, i64 4
  %22 = load i32, ptr %21, align 4, !tbaa !90
  %23 = getelementptr inbounds nuw i8, ptr %5, i64 8
  %24 = load i32, ptr %23, align 8, !tbaa !91
  %25 = getelementptr inbounds nuw i8, ptr %5, i64 12
  %26 = load i32, ptr %25, align 4, !tbaa !89
  %27 = getelementptr inbounds nuw i8, ptr %5, i64 16
  %28 = load i32, ptr %27, align 8, !tbaa !83
  %29 = getelementptr inbounds nuw i8, ptr %0, i64 4580552
  %30 = load ptr, ptr %29, align 8, !tbaa !30
  %31 = getelementptr inbounds nuw i8, ptr %30, i64 21576
  %32 = load ptr, ptr %31, align 8, !tbaa !71
  %33 = getelementptr inbounds nuw i8, ptr %30, i64 1936
  %34 = load ptr, ptr %33, align 8, !tbaa !72
  %35 = getelementptr inbounds nuw i8, ptr %34, i64 4048
  %36 = load i16, ptr %35, align 8, !tbaa !73
  %37 = zext i16 %36 to i32
  %38 = icmp sgt i32 %28, 0
  %39 = icmp sgt i32 %26, 0
  %or.cond.i = and i1 %39, %38
  br i1 %or.cond.i, label %.preheader.us.i, label %ff_vvc_set_mvf.exit

.preheader.us.i:                                  ; preds = %20, %._crit_edge.us.i
  %.019.us.i = phi i32 [ %51, %._crit_edge.us.i ], [ 0, %20 ]
  %40 = add nsw i32 %.019.us.i, %24
  %41 = ashr i32 %40, 2
  %42 = mul nsw i32 %41, %37
  br label %43

43:                                               ; preds = %43, %.preheader.us.i
  %.01718.us.i = phi i32 [ 0, %.preheader.us.i ], [ %49, %43 ]
  %44 = add nsw i32 %.01718.us.i, %22
  %45 = ashr i32 %44, 2
  %46 = add nsw i32 %45, %42
  %47 = sext i32 %46 to i64
  %48 = getelementptr inbounds %struct.MvField, ptr %32, i64 %47
  call void @llvm.memcpy.p0.p0.i64(ptr noundef nonnull align 8 dereferenceable(24) %48, ptr noundef nonnull readonly align 8 dereferenceable(24) %3, i64 24, i1 false), !tbaa.struct !77
  %49 = add nuw nsw i32 %.01718.us.i, 4
  %50 = icmp slt i32 %49, %26
  br i1 %50, label %43, label %._crit_edge.us.i, !llvm.loop !78

._crit_edge.us.i:                                 ; preds = %43
  %51 = add nuw nsw i32 %.019.us.i, 4
  %52 = icmp slt i32 %51, %28
  br i1 %52, label %.preheader.us.i, label %ff_vvc_set_mvf.exit, !llvm.loop !79

ff_vvc_set_mvf.exit:                              ; preds = %._crit_edge.us.i, %20
  call void @llvm.lifetime.end.p0(i64 24, ptr nonnull %3) #14
  ret void

53:                                               ; preds = %2, %64
  %54 = phi i1 [ true, %2 ], [ false, %64 ]
  %indvars.iv.sroa.phi = phi ptr [ %3, %2 ], [ %indvars.iv.sroa.gep20, %64 ]
  %indvars.iv = phi i64 [ 0, %2 ], [ 1, %64 ]
  %55 = trunc nuw nsw i64 %indvars.iv to i32
  %56 = add nuw nsw i32 %55, 1
  %57 = and i32 %56, %19
  %.not = icmp eq i32 %57, 0
  br i1 %.not, label %64, label %58

58:                                               ; preds = %53
  %59 = getelementptr inbounds nuw [2 x [3 x %struct.Mv]], ptr %16, i64 0, i64 %indvars.iv
  %60 = load i64, ptr %59, align 4
  store i64 %60, ptr %indvars.iv.sroa.phi, align 8
  %61 = getelementptr inbounds nuw [2 x i8], ptr %17, i64 0, i64 %indvars.iv
  %62 = load i8, ptr %61, align 1, !tbaa !29
  %63 = getelementptr inbounds nuw [2 x i8], ptr %18, i64 0, i64 %indvars.iv
  store i8 %62, ptr %63, align 1, !tbaa !29
  br label %64

64:                                               ; preds = %58, %53
  br i1 %54, label %53, label %20, !llvm.loop !143
}